target datalayout = "e-m:e-p270:32:32-p271:32:32-p272:64:64-i64:64-i128:128-f80:128-n8:16:32:64-S128"
target triple = "x86_64-pc-linux-gnu"

%"class.Imf_3_4::TimeCode" = type { i32, i32 }

; Function Attrs: mustprogress nounwind uwtable
define void @_ZN7Imf_3_48TimeCodeC2ERKS0_(ptr noundef nonnull align 4 dereferenceable(8) %0, ptr noundef nonnull align 4 dereferenceable(8) %1) unnamed_addr #0 align 2 {
  %3 = alloca ptr, align 8
  %4 = alloca ptr, align 8
  store ptr %0, ptr %3, align 8, !tbaa !3
  store ptr %1, ptr %4, align 8, !tbaa !3
  %5 = load ptr, ptr %3, align 8
  %6 = load ptr, ptr %4, align 8, !tbaa !3
  %7 = getelementptr inbounds nuw %"class.Imf_3_4::TimeCode", ptr %6, i32 0, i32 0
  %8 = load i32, ptr %7, align 4, !tbaa !8
  %9 = getelementptr inbounds nuw %"class.Imf_3_4::TimeCode", ptr %5, i32 0, i32 0
  store i32 %8, ptr %9, align 4, !tbaa !8
  %10 = load ptr, ptr %4, align 8, !tbaa !3
  %11 = getelementptr inbounds nuw %"class.Imf_3_4::TimeCode", ptr %10, i32 0, i32 1
  %12 = load i32, ptr %11, align 4, !tbaa !11
  %13 = getelementptr inbounds nuw %"class.Imf_3_4::TimeCode", ptr %5, i32 0, i32 1
  store i32 %12, ptr %13, align 4, !tbaa !11
  ret void
}