; Function Attrs: mustprogress nofree norecurse nosync nounwind willreturn memory(argmem: readwrite) uwtable
define void @_ZN7Imf_3_48TimeCodeC2ERKS0_(ptr noundef nonnull writeonly align 4 captures(none) dereferenceable(8) initializes((0, 8)) %0, ptr noundef nonnull readonly align 4 captures(none) dereferenceable(8) %1) unnamed_addr #2 align 2 {
  %3 = load i32, ptr %1, align 4, !tbaa !3
  store i32 %3, ptr %0, align 4, !tbaa !3
  %4 = getelementptr inbounds nuw i8, ptr %1, i64 4
  %5 = load i32, ptr %4, align 4, !tbaa !8
  %6 = getelementptr inbounds nuw i8, ptr %0, i64 4
  store i32 %5, ptr %6, align 4, !tbaa !8
  ret void
}